; ModuleID = 'source-C-CXX/54/659.cpp'
source_filename = "source-C-CXX/54/659.cpp"
target datalayout = "e-m:e-p270:32:32-p271:32:32-p272:64:64-i64:64-f80:128-n8:16:32:64-S128"
target triple = "x86_64-pc-linux-gnu"

%"class.std::ios_base::Init" = type { i8 }
%"class.std::basic_istream" = type { i32 (...)**, i64, %"class.std::basic_ios" }
%"class.std::basic_ios" = type { %"class.std::ios_base", %"class.std::basic_ostream"*, i8, i8, %"class.std::basic_streambuf"*, %"class.std::ctype"*, %"class.std::num_put"*, %"class.std::num_get"* }
%"class.std::ios_base" = type { i32 (...)**, i64, i64, i32, i32, i32, %"struct.std::ios_base::_Callback_list"*, %"struct.std::ios_base::_Words", [8 x %"struct.std::ios_base::_Words"], i32, %"struct.std::ios_base::_Words"*, %"class.std::locale" }
%"struct.std::ios_base::_Callback_list" = type { %"struct.std::ios_base::_Callback_list"*, void (i32, %"class.std::ios_base"*, i32)*, i32, i32 }
%"struct.std::ios_base::_Words" = type { i8*, i64 }
%"class.std::locale" = type { %"class.std::locale::_Impl"* }
%"class.std::locale::_Impl" = type { i32, %"class.std::locale::facet"**, i64, %"class.std::locale::facet"**, i8** }
%"class.std::locale::facet" = type <{ i32 (...)**, i32, [4 x i8] }>
%"class.std::basic_ostream" = type { i32 (...)**, %"class.std::basic_ios" }
%"class.std::basic_streambuf" = type { i32 (...)**, i8*, i8*, i8*, i8*, i8*, i8*, %"class.std::locale" }
%"class.std::ctype" = type <{ %"class.std::locale::facet.base", [4 x i8], %struct.__locale_struct*, i8, [7 x i8], i32*, i32*, i16*, i8, [256 x i8], [256 x i8], i8, [6 x i8] }>
%"class.std::locale::facet.base" = type <{ i32 (...)**, i32 }>
%struct.__locale_struct = type { [13 x %struct.__locale_data*], i16*, i32*, i32*, [13 x i8*] }
%struct.__locale_data = type opaque
%"class.std::num_put" = type { %"class.std::locale::facet.base", [4 x i8] }
%"class.std::num_get" = type { %"class.std::locale::facet.base", [4 x i8] }

@_ZStL8__ioinit = internal global %"class.std::ios_base::Init" zeroinitializer, align 1
@__dso_handle = external hidden global i8
@_ZSt3cin = external global %"class.std::basic_istream", align 8
@_ZSt4cout = external global %"class.std::basic_ostream", align 8
@llvm.global_ctors = appending global [1 x { i32, void ()*, i8* }] [{ i32, void ()*, i8* } { i32 65535, void ()* @_GLOBAL__sub_I_659.cpp, i8* null }]

declare void @_ZNSt8ios_base4InitC1Ev(%"class.std::ios_base::Init"* nonnull align 1 dereferenceable(1)) unnamed_addr #0

; Function Attrs: nounwind
declare void @_ZNSt8ios_base4InitD1Ev(%"class.std::ios_base::Init"* nonnull align 1 dereferenceable(1)) unnamed_addr #1

; Function Attrs: nofree nounwind
declare i32 @__cxa_atexit(void (i8*)*, i8*, i8*) local_unnamed_addr #2

; Function Attrs: mustprogress norecurse sspstrong uwtable
define dso_local i32 @main() local_unnamed_addr #3 {
  %1 = alloca i8, align 1
  %2 = alloca i32, align 4
  %3 = alloca i32, align 4
  %4 = alloca [100 x i8], align 16
  %5 = alloca [100 x i8], align 16
  %6 = bitcast i32* %2 to i8*
  call void @llvm.lifetime.start.p0i8(i64 4, i8* nonnull %6) #7
  %7 = bitcast i32* %3 to i8*
  call void @llvm.lifetime.start.p0i8(i64 4, i8* nonnull %7) #7
  %8 = getelementptr inbounds [100 x i8], [100 x i8]* %4, i64 0, i64 0
  call void @llvm.lifetime.start.p0i8(i64 100, i8* nonnull %8) #7
  %9 = getelementptr inbounds [100 x i8], [100 x i8]* %5, i64 0, i64 0
  call void @llvm.lifetime.start.p0i8(i64 100, i8* nonnull %9) #7
  %10 = call nonnull align 8 dereferenceable(16) %"class.std::basic_istream"* @_ZNSirsERi(%"class.std::basic_istream"* nonnull align 8 dereferenceable(16) @_ZSt3cin, i32* nonnull align 4 dereferenceable(4) %2)
  call void @_ZSt17__istream_extractRSiPcl(%"class.std::basic_istream"* nonnull align 8 dereferenceable(16) %10, i8* nonnull %8, i64 100)
  %11 = call nonnull align 8 dereferenceable(16) %"class.std::basic_istream"* @_ZNSirsERi(%"class.std::basic_istream"* nonnull align 8 dereferenceable(16) %10, i32* nonnull align 4 dereferenceable(4) %3)
  br label %12

12:                                               ; preds = %96, %0
  %13 = phi i64 [ 0, %0 ], [ %97, %96 ]
  %14 = getelementptr inbounds [100 x i8], [100 x i8]* %4, i64 0, i64 %13
  %15 = load i8, i8* %14, align 1, !tbaa !5
  %16 = icmp eq i8 %15, 0
  br i1 %16, label %22, label %17

17:                                               ; preds = %12
  %18 = add nuw nsw i64 %13, 1
  %19 = getelementptr inbounds [100 x i8], [100 x i8]* %4, i64 0, i64 %18
  %20 = load i8, i8* %19, align 1, !tbaa !5
  %21 = icmp eq i8 %20, 0
  br i1 %21, label %22, label %81

22:                                               ; preds = %91, %86, %81, %17, %12
  %23 = phi i64 [ %13, %12 ], [ %18, %17 ], [ %82, %81 ], [ %87, %86 ], [ %92, %91 ]
  %24 = trunc i64 %23 to i32
  %25 = icmp eq i32 %24, 0
  br i1 %25, label %29, label %26

26:                                               ; preds = %96, %22
  %27 = phi i32 [ %24, %22 ], [ 100, %96 ]
  %28 = zext i32 %27 to i64
  br label %32

29:                                               ; preds = %32, %22
  %30 = phi i32 [ 0, %22 ], [ %54, %32 ]
  %31 = load i32, i32* %3, align 4, !tbaa !8
  br label %58

32:                                               ; preds = %26, %32
  %33 = phi i64 [ 0, %26 ], [ %55, %32 ]
  %34 = phi i32 [ 0, %26 ], [ %56, %32 ]
  %35 = phi i32 [ 0, %26 ], [ %54, %32 ]
  %36 = getelementptr inbounds [100 x i8], [100 x i8]* %4, i64 0, i64 %33
  %37 = load i8, i8* %36, align 1, !tbaa !5
  %38 = sext i8 %37 to i32
  %39 = icmp slt i8 %37, 58
  %40 = icmp slt i8 %37, 91
  %41 = select i1 %40, i32 -55, i32 -87
  %42 = select i1 %39, i32 -48, i32 %41
  %43 = add nsw i32 %42, %38
  %44 = uitofp i32 %35 to double
  %45 = sitofp i32 %43 to double
  %46 = load i32, i32* %2, align 4, !tbaa !8
  %47 = sitofp i32 %46 to double
  %48 = xor i32 %34, -1
  %49 = add nsw i32 %27, %48
  %50 = sitofp i32 %49 to double
  %51 = call double @pow(double %47, double %50) #7
  %52 = fmul double %51, %45
  %53 = fadd double %52, %44
  %54 = fptoui double %53 to i32
  %55 = add nuw nsw i64 %33, 1
  %56 = add nuw nsw i32 %34, 1
  %57 = icmp eq i64 %55, %28
  br i1 %57, label %29, label %32, !llvm.loop !10

58:                                               ; preds = %29, %58
  %59 = phi i64 [ 0, %29 ], [ %68, %58 ]
  %60 = phi i32 [ %30, %29 ], [ %67, %58 ]
  %61 = urem i32 %60, %31
  %62 = trunc i32 %61 to i8
  %63 = getelementptr inbounds [100 x i8], [100 x i8]* %5, i64 0, i64 %59
  %64 = icmp slt i8 %62, 10
  %65 = select i1 %64, i8 48, i8 55
  %66 = add i8 %65, %62
  store i8 %66, i8* %63, align 1, !tbaa !5
  %67 = udiv i32 %60, %31
  %68 = add nuw i64 %59, 1
  %69 = icmp ugt i32 %31, %60
  br i1 %69, label %70, label %58, !llvm.loop !12

70:                                               ; preds = %58
  %71 = and i64 %59, 4294967295
  br label %72

72:                                               ; preds = %70, %72
  %73 = phi i64 [ %71, %70 ], [ %79, %72 ]
  %74 = getelementptr inbounds [100 x i8], [100 x i8]* %5, i64 0, i64 %73
  %75 = load i8, i8* %74, align 1, !tbaa !5
  call void @llvm.lifetime.start.p0i8(i64 1, i8* nonnull %1)
  store i8 %75, i8* %1, align 1, !tbaa !5
  %76 = call nonnull align 8 dereferenceable(8) %"class.std::basic_ostream"* @_ZSt16__ostream_insertIcSt11char_traitsIcEERSt13basic_ostreamIT_T0_ES6_PKS3_l(%"class.std::basic_ostream"* nonnull align 8 dereferenceable(8) @_ZSt4cout, i8* nonnull %1, i64 1)
  call void @llvm.lifetime.end.p0i8(i64 1, i8* nonnull %1)
  %77 = trunc i64 %73 to i32
  %78 = icmp sgt i32 %77, 0
  %79 = add nsw i64 %73, -1
  br i1 %78, label %72, label %80, !llvm.loop !13

80:                                               ; preds = %72
  call void @llvm.lifetime.end.p0i8(i64 100, i8* nonnull %9) #7
  call void @llvm.lifetime.end.p0i8(i64 100, i8* nonnull %8) #7
  call void @llvm.lifetime.end.p0i8(i64 4, i8* nonnull %7) #7
  call void @llvm.lifetime.end.p0i8(i64 4, i8* nonnull %6) #7
  ret i32 0

81:                                               ; preds = %17
  %82 = add nuw nsw i64 %13, 2
  %83 = getelementptr inbounds [100 x i8], [100 x i8]* %4, i64 0, i64 %82
  %84 = load i8, i8* %83, align 1, !tbaa !5
  %85 = icmp eq i8 %84, 0
  br i1 %85, label %22, label %86

86:                                               ; preds = %81
  %87 = add nuw nsw i64 %13, 3
  %88 = getelementptr inbounds [100 x i8], [100 x i8]* %4, i64 0, i64 %87
  %89 = load i8, i8* %88, align 1, !tbaa !5
  %90 = icmp eq i8 %89, 0
  br i1 %90, label %22, label %91

91:                                               ; preds = %86
  %92 = add nuw nsw i64 %13, 4
  %93 = getelementptr inbounds [100 x i8], [100 x i8]* %4, i64 0, i64 %92
  %94 = load i8, i8* %93, align 1, !tbaa !5
  %95 = icmp eq i8 %94, 0
  br i1 %95, label %22, label %96

96:                                               ; preds = %91
  %97 = add nuw nsw i64 %13, 5
  %98 = icmp eq i64 %97, 100
  br i1 %98, label %26, label %12, !llvm.loop !14
}

; Function Attrs: argmemonly mustprogress nofree nosync nounwind willreturn
declare void @llvm.lifetime.start.p0i8(i64 immarg, i8* nocapture) #4

declare nonnull align 8 dereferenceable(16) %"class.std::basic_istream"* @_ZNSirsERi(%"class.std::basic_istream"* nonnull align 8 dereferenceable(16), i32* nonnull align 4 dereferenceable(4)) local_unnamed_addr #0

; Function Attrs: argmemonly mustprogress nofree nosync nounwind willreturn
declare void @llvm.lifetime.end.p0i8(i64 immarg, i8* nocapture) #4

; Function Attrs: mustprogress nofree nounwind willreturn
declare double @pow(double, double) local_unnamed_addr #5

declare void @_ZSt17__istream_extractRSiPcl(%"class.std::basic_istream"* nonnull align 8 dereferenceable(16), i8*, i64) local_unnamed_addr #0

declare nonnull align 8 dereferenceable(8) %"class.std::basic_ostream"* @_ZSt16__ostream_insertIcSt11char_traitsIcEERSt13basic_ostreamIT_T0_ES6_PKS3_l(%"class.std::basic_ostream"* nonnull align 8 dereferenceable(8), i8*, i64) local_unnamed_addr #0

; Function Attrs: sspstrong uwtable
define internal void @_GLOBAL__sub_I_659.cpp() #6 section ".text.startup" {
  tail call void @_ZNSt8ios_base4InitC1Ev(%"class.std::ios_base::Init"* nonnull align 1 dereferenceable(1) @_ZStL8__ioinit)
  %1 = tail call i32 @__cxa_atexit(void (i8*)* bitcast (void (%"class.std::ios_base::Init"*)* @_ZNSt8ios_base4InitD1Ev to void (i8*)*), i8* getelementptr inbounds (%"class.std::ios_base::Init", %"class.std::ios_base::Init"* @_ZStL8__ioinit, i64 0, i32 0), i8* nonnull @__dso_handle) #7
  ret void
}


!llvm.module.flags = !{!0, !1, !2, !3}
!llvm.ident = !{!4}

!0 = !{i32 1, !"wchar_size", i32 4}
!1 = !{i32 7, !"PIC Level", i32 2}
!2 = !{i32 7, !"PIE Level", i32 2}
!3 = !{i32 7, !"uwtable", i32 1}
!4 = !{!"clang version 13.0.0"}
!5 = !{!6, !6, i64 0}
!6 = !{!"omnipotent char", !7, i64 0}
!7 = !{!"Simple C++ TBAA"}
!8 = !{!9, !9, i64 0}
!9 = !{!"int", !6, i64 0}
!10 = distinct !{!10, !11}
!11 = !{!"llvm.loop.mustprogress"}
!12 = distinct !{!12, !11}
!13 = distinct !{!13, !11}
!14 = distinct !{!14, !11}
